target datalayout = "e-m:e-p270:32:32-p271:32:32-p272:64:64-i64:64-i128:128-f80:128-n8:16:32:64-S128"
target triple = "x86_64-pc-linux-gnu"

%struct.DdNode = type { i32, i32, ptr, %union.anon, i64 }
%union.anon = type { %struct.DdChildren }
%struct.DdChildren = type { ptr, ptr }
%struct.DdManager = type { %struct.DdNode, ptr, ptr, ptr, ptr, ptr, ptr, ptr, i32, i32, double, double, double, i32, i32, i32, i32, i32, i32, ptr, ptr, %struct.DdSubtable, i32, i32, i32, i32, i32, i32, i32, double, i32, i32, i32, ptr, i64, double, i32, ptr, ptr, ptr, ptr, ptr, ptr, ptr, i32, ptr, ptr, ptr, ptr, ptr, ptr, i32, i32, i32, double, i32, i32, i32, i32, double, double, i32, i32, i32, i32, i32, i32, i32, i32, i32, ptr, ptr, i32, i32, i32, i32, i32, i32, ptr, ptr, ptr, ptr, ptr, ptr, ptr, ptr, i32, i64, i64, i64, i32, i64, i64, double, double, double, double, double, double, i32, ptr, ptr, i64 }
%struct.DdSubtable = type { ptr, i32, i32, i32, i32, i32, i32, i32, i32, i32, i32, i32 }

; Function Attrs: nounwind uwtable
define void @cuddReclaim(ptr noundef %0, ptr noundef %1) #0 {
  %3 = alloca ptr, align 8
  %4 = alloca ptr, align 8
  %5 = alloca ptr, align 8
  %6 = alloca i32, align 4
  %7 = alloca ptr, align 8
  %8 = alloca i32, align 4
  %9 = alloca double, align 8
  store ptr %0, ptr %3, align 8, !tbaa !12
  store ptr %1, ptr %4, align 8, !tbaa !3
  call void @llvm.lifetime.start.p0(i64 8, ptr %5) #4
  call void @llvm.lifetime.start.p0(i64 4, ptr %6) #4
  call void @llvm.lifetime.start.p0(i64 8, ptr %7) #4
  %10 = load ptr, ptr %3, align 8, !tbaa !12
  %11 = getelementptr inbounds nuw %struct.DdManager, ptr %10, i32 0, i32 33
  %12 = load ptr, ptr %11, align 8, !tbaa !14
  store ptr %12, ptr %7, align 8, !tbaa !28
  call void @llvm.lifetime.start.p0(i64 4, ptr %8) #4
  store i32 1, ptr %8, align 4, !tbaa !29
  call void @llvm.lifetime.start.p0(i64 8, ptr %9) #4
  %13 = load ptr, ptr %3, align 8, !tbaa !12
  %14 = getelementptr inbounds nuw %struct.DdManager, ptr %13, i32 0, i32 25
  %15 = load i32, ptr %14, align 4, !tbaa !31
  %16 = uitofp i32 %15 to double
  store double %16, ptr %9, align 8, !tbaa !74
  %17 = load ptr, ptr %4, align 8, !tbaa !3
  %18 = ptrtoint ptr %17 to i64
  %19 = and i64 %18, -2
  %20 = inttoptr i64 %19 to ptr
  store ptr %20, ptr %5, align 8, !tbaa !3
  br label %21

21:                                               ; preds = %97, %2
  %22 = load ptr, ptr %5, align 8, !tbaa !3
  %23 = getelementptr inbounds nuw %struct.DdNode, ptr %22, i32 0, i32 1
  %24 = load i32, ptr %23, align 4, !tbaa !8
  %25 = icmp eq i32 %24, 0
  br i1 %25, label %26, label %85

26:                                               ; preds = %21
  %27 = load ptr, ptr %5, align 8, !tbaa !3
  %28 = getelementptr inbounds nuw %struct.DdNode, ptr %27, i32 0, i32 1
  store i32 1, ptr %28, align 4, !tbaa !8
  %29 = load ptr, ptr %3, align 8, !tbaa !12
  %30 = getelementptr inbounds nuw %struct.DdManager, ptr %29, i32 0, i32 25
  %31 = load i32, ptr %30, align 4, !tbaa !31
  %32 = add i32 %31, -1
  store i32 %32, ptr %30, align 4, !tbaa !31
  %33 = load ptr, ptr %5, align 8, !tbaa !3
  %34 = getelementptr inbounds nuw %struct.DdNode, ptr %33, i32 0, i32 0
  %35 = load i32, ptr %34, align 8, !tbaa !33
  %36 = icmp eq i32 %35, 2147483647
  br i1 %36, label %37, label %49

37:                                               ; preds = %26
  %38 = load ptr, ptr %3, align 8, !tbaa !12
  %39 = getelementptr inbounds nuw %struct.DdManager, ptr %38, i32 0, i32 21
  %40 = getelementptr inbounds nuw %struct.DdSubtable, ptr %39, i32 0, i32 5
  %41 = load i32, ptr %40, align 8, !tbaa !34
  %42 = add i32 %41, -1
  store i32 %42, ptr %40, align 8, !tbaa !34
  %43 = load ptr, ptr %7, align 8, !tbaa !28
  %44 = load i32, ptr %8, align 4, !tbaa !29
  %45 = add nsw i32 %44, -1
  store i32 %45, ptr %8, align 4, !tbaa !29
  %46 = sext i32 %45 to i64
  %47 = getelementptr inbounds ptr, ptr %43, i64 %46
  %48 = load ptr, ptr %47, align 8, !tbaa !3
  store ptr %48, ptr %5, align 8, !tbaa !3
  br label %84

49:                                               ; preds = %26
  %50 = load ptr, ptr %3, align 8, !tbaa !12
  %51 = getelementptr inbounds nuw %struct.DdManager, ptr %50, i32 0, i32 37
  %52 = load ptr, ptr %51, align 8, !tbaa !35
  %53 = load ptr, ptr %5, align 8, !tbaa !3
  %54 = getelementptr inbounds nuw %struct.DdNode, ptr %53, i32 0, i32 0
  %55 = load i32, ptr %54, align 8, !tbaa !33
  %56 = zext i32 %55 to i64
  %57 = getelementptr inbounds nuw i32, ptr %52, i64 %56
  %58 = load i32, ptr %57, align 4, !tbaa !29
  store i32 %58, ptr %6, align 4, !tbaa !29
  %59 = load ptr, ptr %5, align 8, !tbaa !3
  %60 = getelementptr inbounds nuw %struct.DdNode, ptr %59, i32 0, i32 3
  %61 = getelementptr inbounds nuw %struct.DdChildren, ptr %60, i32 0, i32 1
  %62 = load ptr, ptr %61, align 8, !tbaa !36
  %63 = ptrtoint ptr %62 to i64
  %64 = and i64 %63, -2
  %65 = inttoptr i64 %64 to ptr
  %66 = load ptr, ptr %7, align 8, !tbaa !28
  %67 = load i32, ptr %8, align 4, !tbaa !29
  %68 = add nsw i32 %67, 1
  store i32 %68, ptr %8, align 4, !tbaa !29
  %69 = sext i32 %67 to i64
  %70 = getelementptr inbounds ptr, ptr %66, i64 %69
  store ptr %65, ptr %70, align 8, !tbaa !3
  %71 = load ptr, ptr %3, align 8, !tbaa !12
  %72 = getelementptr inbounds nuw %struct.DdManager, ptr %71, i32 0, i32 19
  %73 = load ptr, ptr %72, align 8, !tbaa !37
  %74 = load i32, ptr %6, align 4, !tbaa !29
  %75 = sext i32 %74 to i64
  %76 = getelementptr inbounds %struct.DdSubtable, ptr %73, i64 %75
  %77 = getelementptr inbounds nuw %struct.DdSubtable, ptr %76, i32 0, i32 5
  %78 = load i32, ptr %77, align 8, !tbaa !38
  %79 = add i32 %78, -1
  store i32 %79, ptr %77, align 8, !tbaa !38
  %80 = load ptr, ptr %5, align 8, !tbaa !3
  %81 = getelementptr inbounds nuw %struct.DdNode, ptr %80, i32 0, i32 3
  %82 = getelementptr inbounds nuw %struct.DdChildren, ptr %81, i32 0, i32 0
  %83 = load ptr, ptr %82, align 8, !tbaa !36
  store ptr %83, ptr %5, align 8, !tbaa !3
  br label %84

84:                                               ; preds = %49, %37
  br label %96

85:                                               ; preds = %21
  %86 = load ptr, ptr %5, align 8, !tbaa !3
  %87 = getelementptr inbounds nuw %struct.DdNode, ptr %86, i32 0, i32 1
  %88 = load i32, ptr %87, align 4, !tbaa !8
  %89 = add i32 %88, 1
  store i32 %89, ptr %87, align 4, !tbaa !8
  %90 = load ptr, ptr %7, align 8, !tbaa !28
  %91 = load i32, ptr %8, align 4, !tbaa !29
  %92 = add nsw i32 %91, -1
  store i32 %92, ptr %8, align 4, !tbaa !29
  %93 = sext i32 %92 to i64
  %94 = getelementptr inbounds ptr, ptr %90, i64 %93
  %95 = load ptr, ptr %94, align 8, !tbaa !3
  store ptr %95, ptr %5, align 8, !tbaa !3
  br label %96

96:                                               ; preds = %85, %84
  br label %97

97:                                               ; preds = %96
  %98 = load i32, ptr %8, align 4, !tbaa !29
  %99 = icmp ne i32 %98, 0
  br i1 %99, label %21, label %100, !llvm.loop !75

100:                                              ; preds = %97
  %101 = load ptr, ptr %4, align 8, !tbaa !3
  %102 = ptrtoint ptr %101 to i64
  %103 = and i64 %102, -2
  %104 = inttoptr i64 %103 to ptr
  store ptr %104, ptr %5, align 8, !tbaa !3
  %105 = load ptr, ptr %5, align 8, !tbaa !3
  %106 = getelementptr inbounds nuw %struct.DdNode, ptr %105, i32 0, i32 1
  %107 = load i32, ptr %106, align 4, !tbaa !8
  %108 = add i32 %107, -1
  store i32 %108, ptr %106, align 4, !tbaa !8
  %109 = load double, ptr %9, align 8, !tbaa !74
  %110 = load ptr, ptr %3, align 8, !tbaa !12
  %111 = getelementptr inbounds nuw %struct.DdManager, ptr %110, i32 0, i32 25
  %112 = load i32, ptr %111, align 4, !tbaa !31
  %113 = uitofp i32 %112 to double
  %114 = fsub double %109, %113
  %115 = load ptr, ptr %3, align 8, !tbaa !12
  %116 = getelementptr inbounds nuw %struct.DdManager, ptr %115, i32 0, i32 35
  %117 = load double, ptr %116, align 8, !tbaa !76
  %118 = fadd double %117, %114
  store double %118, ptr %116, align 8, !tbaa !76
  call void @llvm.lifetime.end.p0(i64 8, ptr %9) #4
  call void @llvm.lifetime.end.p0(i64 4, ptr %8) #4
  call void @llvm.lifetime.end.p0(i64 8, ptr %7) #4
  call void @llvm.lifetime.end.p0(i64 4, ptr %6) #4
  call void @llvm.lifetime.end.p0(i64 8, ptr %5) #4
  ret void
}