; Function Attrs: nofree norecurse nosync nounwind memory(readwrite, inaccessiblemem: none) uwtable
define void @cuddReclaim(ptr noundef captures(none) %0, ptr noundef %1) local_unnamed_addr #1 {
  %3 = getelementptr inbounds nuw i8, ptr %0, i64 280
  %4 = load ptr, ptr %3, align 8, !tbaa !11
  %5 = getelementptr inbounds nuw i8, ptr %0, i64 236
  %6 = load i32, ptr %5, align 4, !tbaa !26
  %7 = ptrtoint ptr %1 to i64
  %8 = and i64 %7, -2
  %9 = inttoptr i64 %8 to ptr
  %10 = getelementptr inbounds nuw i8, ptr %0, i64 312
  %11 = getelementptr inbounds nuw i8, ptr %0, i64 152
  %12 = getelementptr inbounds nuw i8, ptr %0, i64 192
  br label %13

13:                                               ; preds = %52, %2
  %14 = phi i32 [ %6, %2 ], [ %53, %52 ]
  %.026 = phi i32 [ 1, %2 ], [ %.127, %52 ]
  %.0 = phi ptr [ %9, %2 ], [ %.1, %52 ]
  %15 = getelementptr inbounds nuw i8, ptr %.0, i64 4
  %16 = load i32, ptr %15, align 4, !tbaa !3
  %17 = icmp eq i32 %16, 0
  br i1 %17, label %18, label %47

18:                                               ; preds = %13
  store i32 1, ptr %15, align 4, !tbaa !3
  %19 = add i32 %14, -1
  store i32 %19, ptr %5, align 4, !tbaa !26
  %20 = load i32, ptr %.0, align 8, !tbaa !28
  %21 = icmp eq i32 %20, 2147483647
  br i1 %21, label %22, label %28

22:                                               ; preds = %18
  %23 = load i32, ptr %12, align 8, !tbaa !29
  %24 = add i32 %23, -1
  store i32 %24, ptr %12, align 8, !tbaa !29
  %25 = add nsw i32 %.026, -1
  %26 = sext i32 %25 to i64
  %27 = getelementptr inbounds ptr, ptr %4, i64 %26
  br label %52

28:                                               ; preds = %18
  %29 = load ptr, ptr %10, align 8, !tbaa !30
  %30 = zext i32 %20 to i64
  %31 = getelementptr inbounds nuw i32, ptr %29, i64 %30
  %32 = load i32, ptr %31, align 4, !tbaa !31
  %33 = getelementptr inbounds nuw i8, ptr %.0, i64 16
  %34 = getelementptr inbounds nuw i8, ptr %.0, i64 24
  %35 = load ptr, ptr %34, align 8, !tbaa !32
  %36 = ptrtoint ptr %35 to i64
  %37 = and i64 %36, -2
  %38 = inttoptr i64 %37 to ptr
  %39 = add nsw i32 %.026, 1
  %40 = sext i32 %.026 to i64
  %41 = getelementptr inbounds ptr, ptr %4, i64 %40
  store ptr %38, ptr %41, align 8, !tbaa !33
  %42 = load ptr, ptr %11, align 8, !tbaa !34
  %43 = sext i32 %32 to i64
  %44 = getelementptr inbounds %struct.DdSubtable, ptr %42, i64 %43, i32 5
  %45 = load i32, ptr %44, align 8, !tbaa !35
  %46 = add i32 %45, -1
  store i32 %46, ptr %44, align 8, !tbaa !35
  br label %52

47:                                               ; preds = %13
  %48 = add i32 %16, 1
  store i32 %48, ptr %15, align 4, !tbaa !3
  %49 = add nsw i32 %.026, -1
  %50 = sext i32 %49 to i64
  %51 = getelementptr inbounds ptr, ptr %4, i64 %50
  br label %52

52:                                               ; preds = %47, %28, %22
  %53 = phi i32 [ %19, %22 ], [ %19, %28 ], [ %14, %47 ]
  %.127 = phi i32 [ %25, %22 ], [ %39, %28 ], [ %49, %47 ]
  %.1.in = phi ptr [ %27, %22 ], [ %33, %28 ], [ %51, %47 ]
  %.1 = load ptr, ptr %.1.in, align 8, !tbaa !32
  %.not = icmp eq i32 %.127, 0
  br i1 %.not, label %54, label %13, !llvm.loop !69

54:                                               ; preds = %52
  %55 = uitofp i32 %6 to double
  %56 = getelementptr inbounds nuw i8, ptr %9, i64 4
  %57 = load i32, ptr %56, align 4, !tbaa !3
  %58 = add i32 %57, -1
  store i32 %58, ptr %56, align 4, !tbaa !3
  %59 = uitofp i32 %53 to double
  %60 = fsub double %55, %59
  %61 = getelementptr inbounds nuw i8, ptr %0, i64 296
  %62 = load double, ptr %61, align 8, !tbaa !70
  %63 = fadd double %62, %60
  store double %63, ptr %61, align 8, !tbaa !70
  ret void
}